
led.elf:     file format elf32-littlearm


Disassembly of section .text:

00000000 <_start>:
   0:	e3a00001 	mov	r0, #1
   4:	e59f1068 	ldr	r1, [pc, #104]	; 74 <delay_loop+0x10>
   8:	e5810000 	str	r0, [r1]
   c:	e3a00010 	mov	r0, #16
  10:	e59f1060 	ldr	r1, [pc, #96]	; 78 <delay_loop+0x14>
  14:	e5810000 	str	r0, [r1]

00000018 <flash>:
  18:	e3a00001 	mov	r0, #1
  1c:	e59f1058 	ldr	r1, [pc, #88]	; 7c <delay_loop+0x18>
  20:	e5810000 	str	r0, [r1]
  24:	eb00000c 	bl	5c <delay>
  28:	e3a00201 	mov	r0, #268435456	; 0x10000000
  2c:	e59f1048 	ldr	r1, [pc, #72]	; 7c <delay_loop+0x18>
  30:	e5810000 	str	r0, [r1]
  34:	eb000008 	bl	5c <delay>
  38:	e3a00002 	mov	r0, #2
  3c:	e59f103c 	ldr	r1, [pc, #60]	; 80 <delay_loop+0x1c>
  40:	e5810000 	str	r0, [r1]
  44:	eb000004 	bl	5c <delay>
  48:	e3a00000 	mov	r0, #0
  4c:	e59f102c 	ldr	r1, [pc, #44]	; 80 <delay_loop+0x1c>
  50:	e5810000 	str	r0, [r1]
  54:	eb000000 	bl	5c <delay>
  58:	ebffffee 	bl	18 <flash>

0000005c <delay>:
  5c:	e3a02402 	mov	r2, #33554432	; 0x2000000
  60:	e3a03000 	mov	r3, #0

00000064 <delay_loop>:
  64:	e2422001 	sub	r2, r2, #1
  68:	e1520003 	cmp	r2, r3
  6c:	1afffffc 	bne	64 <delay_loop>
  70:	e1a0f00e 	mov	pc, lr
  74:	11000100 	tstne	r0, r0, lsl #2
  78:	11000060 	tstne	r0, r0, rrx
  7c:	11000104 	tstne	r0, r4, lsl #2
  80:	11000064 	tstne	r0, r4, rrx
